target datalayout = "e-m:e-p270:32:32-p271:32:32-p272:64:64-i64:64-i128:128-f80:128-n8:16:32:64-S128"
target triple = "x86_64-pc-linux-gnu"

%struct.ident_t = type { i32, i32, i32, i32, ptr }
%"struct.faiss::EnumeratedVectors" = type <{ ptr, i64, i32, [4 x i8] }>

@1 = private unnamed_addr constant %struct.ident_t { i32 0, i32 514, i32 0, i32 22, ptr @0 }, align 8
@2 = private unnamed_addr constant %struct.ident_t { i32 0, i32 66, i32 0, i32 22, ptr @0 }, align 8

; Function Attrs: noinline norecurse nounwind uwtable
define internal void @_ZNK5faiss17EnumeratedVectors12encode_multiEmPKfPm.omp_outlined(ptr noalias noundef %0, ptr noalias noundef %1, ptr noundef nonnull align 8 dereferenceable(8) %2, ptr noundef nonnull align 8 dereferenceable(8) %3, ptr noundef %4, ptr noundef nonnull align 8 dereferenceable(8) %5) #15 personality ptr @__gxx_personality_v0 {
  %7 = alloca ptr, align 8
  %8 = alloca ptr, align 8
  %9 = alloca ptr, align 8
  %10 = alloca ptr, align 8
  %11 = alloca ptr, align 8
  %12 = alloca ptr, align 8
  %13 = alloca i32, align 4
  %14 = alloca i64, align 8
  %15 = alloca i32, align 4
  %16 = alloca i32, align 4
  %17 = alloca i32, align 4
  %18 = alloca i32, align 4
  %19 = alloca i32, align 4
  %20 = alloca i32, align 4
  %21 = alloca i32, align 4
  store ptr %0, ptr %7, align 8, !tbaa !196
  store ptr %1, ptr %8, align 8, !tbaa !196
  store ptr %2, ptr %9, align 8, !tbaa !57
  store ptr %3, ptr %10, align 8, !tbaa !110
  store ptr %4, ptr %11, align 8, !tbaa !194
  store ptr %5, ptr %12, align 8, !tbaa !198
  %22 = load ptr, ptr %9, align 8, !tbaa !57
  %23 = load ptr, ptr %10, align 8, !tbaa !110
  %24 = load ptr, ptr %11, align 8, !tbaa !194
  %25 = load ptr, ptr %12, align 8, !tbaa !198
  call void @llvm.lifetime.start.p0(i64 4, ptr %13) #3
  call void @llvm.lifetime.start.p0(i64 8, ptr %14) #3
  %26 = load i64, ptr %22, align 8, !tbaa !11
  store i64 %26, ptr %14, align 8, !tbaa !11
  call void @llvm.lifetime.start.p0(i64 4, ptr %15) #3
  %27 = load i64, ptr %14, align 8, !tbaa !11
  %28 = sub i64 %27, 0
  %29 = udiv i64 %28, 1
  %30 = trunc i64 %29 to i32
  %31 = sub nsw i32 %30, 1
  store i32 %31, ptr %15, align 4, !tbaa !13
  call void @llvm.lifetime.start.p0(i64 4, ptr %16) #3
  store i32 0, ptr %16, align 4, !tbaa !13
  call void @llvm.lifetime.end.p0(i64 4, ptr %16) #3
  %32 = load i64, ptr %14, align 8, !tbaa !11
  %33 = icmp ult i64 0, %32
  br i1 %33, label %34, label %81

34:                                               ; preds = %6
  call void @llvm.lifetime.start.p0(i64 4, ptr %17) #3
  store i32 0, ptr %17, align 4, !tbaa !13
  call void @llvm.lifetime.start.p0(i64 4, ptr %18) #3
  %35 = load i32, ptr %15, align 4, !tbaa !13
  store i32 %35, ptr %18, align 4, !tbaa !13
  call void @llvm.lifetime.start.p0(i64 4, ptr %19) #3
  store i32 1, ptr %19, align 4, !tbaa !13
  call void @llvm.lifetime.start.p0(i64 4, ptr %20) #3
  store i32 0, ptr %20, align 4, !tbaa !13
  call void @llvm.lifetime.start.p0(i64 4, ptr %21) #3
  %36 = load ptr, ptr %7, align 8
  %37 = load i32, ptr %36, align 4, !tbaa !13
  call void @__kmpc_for_static_init_4(ptr @1, i32 %37, i32 34, ptr %20, ptr %17, ptr %18, ptr %19, i32 1, i32 1)
  %38 = load i32, ptr %18, align 4, !tbaa !13
  %39 = load i32, ptr %15, align 4, !tbaa !13
  %40 = icmp sgt i32 %38, %39
  br i1 %40, label %41, label %43

41:                                               ; preds = %34
  %42 = load i32, ptr %15, align 4, !tbaa !13
  br label %45

43:                                               ; preds = %34
  %44 = load i32, ptr %18, align 4, !tbaa !13
  br label %45

45:                                               ; preds = %43, %41
  %46 = phi i32 [ %42, %41 ], [ %44, %43 ]
  store i32 %46, ptr %18, align 4, !tbaa !13
  %47 = load i32, ptr %17, align 4, !tbaa !13
  store i32 %47, ptr %13, align 4, !tbaa !13
  br label %48

48:                                               ; preds = %74, %45
  %49 = load i32, ptr %13, align 4, !tbaa !13
  %50 = load i32, ptr %18, align 4, !tbaa !13
  %51 = icmp sle i32 %49, %50
  br i1 %51, label %53, label %52

52:                                               ; preds = %48
  br label %77

53:                                               ; preds = %48
  %54 = load i32, ptr %13, align 4, !tbaa !13
  %55 = mul nsw i32 %54, 1
  %56 = add nsw i32 0, %55
  store i32 %56, ptr %21, align 4, !tbaa !13
  %57 = load ptr, ptr %25, align 8, !tbaa !9
  %58 = load i32, ptr %21, align 4, !tbaa !13
  %59 = getelementptr inbounds nuw %"struct.faiss::EnumeratedVectors", ptr %24, i32 0, i32 2
  %60 = load i32, ptr %59, align 8, !tbaa !34
  %61 = mul nsw i32 %58, %60
  %62 = sext i32 %61 to i64
  %63 = getelementptr inbounds float, ptr %57, i64 %62
  %64 = load ptr, ptr %24, align 8, !tbaa !39
  %65 = getelementptr inbounds ptr, ptr %64, i64 0
  %66 = load ptr, ptr %65, align 8
  %67 = invoke noundef i64 %66(ptr noundef nonnull align 8 dereferenceable(20) %24, ptr noundef %63)
          to label %68 unwind label %84

68:                                               ; preds = %53
  %69 = load ptr, ptr %23, align 8, !tbaa !57
  %70 = load i32, ptr %21, align 4, !tbaa !13
  %71 = sext i32 %70 to i64
  %72 = getelementptr inbounds i64, ptr %69, i64 %71
  store i64 %67, ptr %72, align 8, !tbaa !11
  br label %73

73:                                               ; preds = %68
  br label %74

74:                                               ; preds = %73
  %75 = load i32, ptr %13, align 4, !tbaa !13
  %76 = add nsw i32 %75, 1
  store i32 %76, ptr %13, align 4, !tbaa !13
  br label %48

77:                                               ; preds = %52
  br label %78

78:                                               ; preds = %77
  %79 = load ptr, ptr %7, align 8
  %80 = load i32, ptr %79, align 4, !tbaa !13
  call void @__kmpc_for_static_fini(ptr @1, i32 %80)
  call void @llvm.lifetime.end.p0(i64 4, ptr %21) #3
  call void @llvm.lifetime.end.p0(i64 4, ptr %20) #3
  call void @llvm.lifetime.end.p0(i64 4, ptr %19) #3
  call void @llvm.lifetime.end.p0(i64 4, ptr %18) #3
  call void @llvm.lifetime.end.p0(i64 4, ptr %17) #3
  br label %81

81:                                               ; preds = %78, %6
  call void @llvm.lifetime.end.p0(i64 4, ptr %15) #3
  call void @llvm.lifetime.end.p0(i64 8, ptr %14) #3
  call void @llvm.lifetime.end.p0(i64 4, ptr %13) #3
  %82 = load ptr, ptr %7, align 8
  %83 = load i32, ptr %82, align 4, !tbaa !13
  call void @__kmpc_barrier(ptr @2, i32 %83)
  ret void

84:                                               ; preds = %53
  %85 = landingpad { ptr, i32 }
          catch ptr null
  %86 = extractvalue { ptr, i32 } %85, 0
  call void @__clang_call_terminate(ptr %86) #21
  unreachable
}