; Function Attrs: noinline norecurse nounwind uwtable
define internal void @_ZNK5faiss17EnumeratedVectors12encode_multiEmPKfPm.omp_outlined(ptr noalias noundef readonly captures(none) %0, ptr noalias readnone captures(none) %1, ptr noundef nonnull readonly align 8 captures(none) dereferenceable(8) %2, ptr noundef nonnull readonly align 8 captures(none) dereferenceable(8) %3, ptr noundef %4, ptr noundef nonnull readonly align 8 captures(none) dereferenceable(8) %5) #14 personality ptr @__gxx_personality_v0 {
  %7 = alloca i32, align 4
  %8 = alloca i32, align 4
  %9 = alloca i32, align 4
  %10 = alloca i32, align 4
  %11 = load i64, ptr %2, align 8, !tbaa !44
  %.not = icmp eq i64 %11, 0
  %.pre = load i32, ptr %0, align 4, !tbaa !45
  br i1 %.not, label %34, label %12

12:                                               ; preds = %6
  %13 = trunc i64 %11 to i32
  %14 = add nsw i32 %13, -1
  call void @llvm.lifetime.start.p0(i64 4, ptr nonnull %7) #15
  store i32 0, ptr %7, align 4, !tbaa !45
  call void @llvm.lifetime.start.p0(i64 4, ptr nonnull %8) #15
  store i32 %14, ptr %8, align 4, !tbaa !45
  call void @llvm.lifetime.start.p0(i64 4, ptr nonnull %9) #15
  store i32 1, ptr %9, align 4, !tbaa !45
  call void @llvm.lifetime.start.p0(i64 4, ptr nonnull %10) #15
  store i32 0, ptr %10, align 4, !tbaa !45
  call void @__kmpc_for_static_init_4(ptr nonnull @1, i32 %.pre, i32 34, ptr nonnull %10, ptr nonnull %7, ptr nonnull %8, ptr nonnull %9, i32 1, i32 1)
  %15 = load i32, ptr %8, align 4, !tbaa !45
  %16 = call i32 @llvm.smin.i32(i32 %15, i32 %14)
  store i32 %16, ptr %8, align 4, !tbaa !45
  %17 = load i32, ptr %7, align 4, !tbaa !45
  %.not1617 = icmp sgt i32 %17, %16
  br i1 %.not1617, label %._crit_edge, label %.lr.ph

.lr.ph:                                           ; preds = %12
  %18 = getelementptr inbounds nuw i8, ptr %4, i64 16
  %19 = sext i32 %17 to i64
  br label %20

20:                                               ; preds = %.lr.ph, %29
  %indvars.iv = phi i64 [ %19, %.lr.ph ], [ %indvars.iv.next, %29 ]
  %21 = load ptr, ptr %5, align 8, !tbaa !98
  %22 = load i32, ptr %18, align 8, !tbaa !30
  %23 = sext i32 %22 to i64
  %24 = mul nsw i64 %indvars.iv, %23
  %25 = getelementptr inbounds float, ptr %21, i64 %24
  %26 = load ptr, ptr %4, align 8, !tbaa !35
  %27 = load ptr, ptr %26, align 8
  %28 = invoke noundef i64 %27(ptr noundef nonnull align 8 dereferenceable(20) %4, ptr noundef %25)
          to label %29 unwind label %35

29:                                               ; preds = %20
  %30 = load ptr, ptr %3, align 8, !tbaa !99
  %31 = getelementptr inbounds i64, ptr %30, i64 %indvars.iv
  store i64 %28, ptr %31, align 8, !tbaa !44
  %indvars.iv.next = add nsw i64 %indvars.iv, 1
  %32 = load i32, ptr %8, align 4, !tbaa !45
  %33 = sext i32 %32 to i64
  %.not16.not = icmp slt i64 %indvars.iv, %33
  br i1 %.not16.not, label %20, label %._crit_edge

._crit_edge:                                      ; preds = %29, %12
  call void @__kmpc_for_static_fini(ptr nonnull @1, i32 %.pre)
  call void @llvm.lifetime.end.p0(i64 4, ptr nonnull %10) #15
  call void @llvm.lifetime.end.p0(i64 4, ptr nonnull %9) #15
  call void @llvm.lifetime.end.p0(i64 4, ptr nonnull %8) #15
  call void @llvm.lifetime.end.p0(i64 4, ptr nonnull %7) #15
  br label %34

34:                                               ; preds = %._crit_edge, %6
  call void @__kmpc_barrier(ptr nonnull @2, i32 %.pre)
  ret void

35:                                               ; preds = %20
  %36 = landingpad { ptr, i32 }
          catch ptr null
  %37 = extractvalue { ptr, i32 } %36, 0
  call void @__clang_call_terminate(ptr %37) #28
  unreachable
}